target datalayout = "e-m:e-p270:32:32-p271:32:32-p272:64:64-i64:64-i128:128-f80:128-n8:16:32:64-S128"
target triple = "x86_64-pc-linux-gnu"

; Function Attrs: nounwind uwtable
define ptr @zip_strerror(i32 noundef %0) #0 {
  %2 = alloca ptr, align 8
  %3 = alloca i32, align 4
  store i32 %0, ptr %3, align 4
  %4 = load i32, ptr %3, align 4
  %5 = sub nsw i32 0, %4
  store i32 %5, ptr %3, align 4
  %6 = load i32, ptr %3, align 4
  %7 = icmp sle i32 %6, 0
  br i1 %7, label %11, label %8

8:                                                ; preds = %1
  %9 = load i32, ptr %3, align 4
  %10 = icmp sge i32 %9, 33
  br i1 %10, label %11, label %12

11:                                               ; preds = %8, %1
  store ptr null, ptr %2, align 8
  br label %17

12:                                               ; preds = %8
  %13 = load i32, ptr %3, align 4
  %14 = sext i32 %13 to i64
  %15 = getelementptr inbounds [33 x ptr], ptr @zip_errlist, i64 0, i64 %14
  %16 = load ptr, ptr %15, align 8
  store ptr %16, ptr %2, align 8
  br label %17

17:                                               ; preds = %12, %11
  %18 = load ptr, ptr %2, align 8
  ret ptr %18
}