; Function Attrs: mustprogress nofree norecurse nosync nounwind willreturn memory(none) uwtable
define ptr @zip_strerror(i32 noundef %0) local_unnamed_addr #7 {
  %or.cond = icmp ult i32 %0, -32
  br i1 %or.cond, label %7, label %2

2:                                                ; preds = %1
  %3 = sub nsw i32 0, %0
  %4 = zext nneg i32 %3 to i64
  %5 = getelementptr inbounds nuw [33 x ptr], ptr @zip_errlist, i64 0, i64 %4
  %6 = load ptr, ptr %5, align 8
  br label %7

7:                                                ; preds = %1, %2
  %.0 = phi ptr [ %6, %2 ], [ null, %1 ]
  ret ptr %.0
}